; ModuleID = '10/1723.c'
source_filename = "10/1723.c"
target datalayout = "e-m:e-p270:32:32-p271:32:32-p272:64:64-i64:64-f80:128-n8:16:32:64-S128"
target triple = "x86_64-pc-linux-gnu"

@.str = private unnamed_addr constant [3 x i8] c"%d\00", align 1
@.str.1 = private unnamed_addr constant [3 x i8] c"1\0A\00", align 1
@.str.2 = private unnamed_addr constant [4 x i8] c"%d\0A\00", align 1

; Function Attrs: noinline nounwind uwtable
define dso_local i32 @main() #0 {
  %1 = alloca i32, align 4
  %2 = alloca i32, align 4
  %3 = alloca i32, align 4
  %4 = alloca i32, align 4
  %5 = alloca i32, align 4
  %6 = alloca i32, align 4
  %7 = alloca i32, align 4
  %8 = alloca [25 x i32], align 16
  %9 = alloca [25 x i32], align 16
  %10 = alloca [25 x i32], align 16
  store i32 0, i32* %1, align 4
  store i32 0, i32* %5, align 4
  store i32 0, i32* %7, align 4
  %11 = bitcast [25 x i32]* %9 to i8*
  call void @llvm.memset.p0i8.i64(i8* align 16 %11, i8 0, i64 100, i1 false)
  %12 = bitcast [25 x i32]* %10 to i8*
  call void @llvm.memset.p0i8.i64(i8* align 16 %12, i8 0, i64 100, i1 false)
  %13 = call i32 (i8*, ...) @__isoc99_scanf(i8* getelementptr inbounds ([3 x i8], [3 x i8]* @.str, i64 0, i64 0), i32* %2)
  store i32 0, i32* %3, align 4
  br label %14

14:                                               ; preds = %23, %0
  %15 = load i32, i32* %3, align 4
  %16 = load i32, i32* %2, align 4
  %17 = icmp slt i32 %15, %16
  br i1 %17, label %18, label %26

18:                                               ; preds = %14
  %19 = load i32, i32* %3, align 4
  %20 = sext i32 %19 to i64
  %21 = getelementptr inbounds [25 x i32], [25 x i32]* %8, i64 0, i64 %20
  %22 = call i32 (i8*, ...) @__isoc99_scanf(i8* getelementptr inbounds ([3 x i8], [3 x i8]* @.str, i64 0, i64 0), i32* %21)
  br label %23

23:                                               ; preds = %18
  %24 = load i32, i32* %3, align 4
  %25 = add nsw i32 %24, 1
  store i32 %25, i32* %3, align 4
  br label %14

26:                                               ; preds = %14
  %27 = load i32, i32* %2, align 4
  %28 = sub nsw i32 %27, 1
  %29 = sext i32 %28 to i64
  %30 = getelementptr inbounds [25 x i32], [25 x i32]* %9, i64 0, i64 %29
  store i32 1, i32* %30, align 4
  %31 = load i32, i32* %2, align 4
  %32 = icmp eq i32 %31, 1
  br i1 %32, label %33, label %35

33:                                               ; preds = %26
  %34 = call i32 (i8*, ...) @printf(i8* getelementptr inbounds ([3 x i8], [3 x i8]* @.str.1, i64 0, i64 0))
  br label %138

35:                                               ; preds = %26
  %36 = load i32, i32* %2, align 4
  %37 = sub nsw i32 %36, 2
  store i32 %37, i32* %3, align 4
  br label %38

38:                                               ; preds = %111, %35
  %39 = load i32, i32* %3, align 4
  %40 = icmp sge i32 %39, 0
  br i1 %40, label %41, label %114

41:                                               ; preds = %38
  %42 = load i32, i32* %3, align 4
  %43 = add nsw i32 %42, 1
  store i32 %43, i32* %4, align 4
  br label %44

44:                                               ; preds = %69, %41
  %45 = load i32, i32* %4, align 4
  %46 = load i32, i32* %2, align 4
  %47 = icmp slt i32 %45, %46
  br i1 %47, label %48, label %72

48:                                               ; preds = %44
  %49 = load i32, i32* %4, align 4
  %50 = sext i32 %49 to i64
  %51 = getelementptr inbounds [25 x i32], [25 x i32]* %8, i64 0, i64 %50
  %52 = load i32, i32* %51, align 4
  %53 = load i32, i32* %3, align 4
  %54 = sext i32 %53 to i64
  %55 = getelementptr inbounds [25 x i32], [25 x i32]* %8, i64 0, i64 %54
  %56 = load i32, i32* %55, align 4
  %57 = icmp sle i32 %52, %56
  br i1 %57, label %58, label %68

58:                                               ; preds = %48
  %59 = load i32, i32* %4, align 4
  %60 = sext i32 %59 to i64
  %61 = getelementptr inbounds [25 x i32], [25 x i32]* %9, i64 0, i64 %60
  %62 = load i32, i32* %61, align 4
  %63 = load i32, i32* %5, align 4
  %64 = sext i32 %63 to i64
  %65 = getelementptr inbounds [25 x i32], [25 x i32]* %10, i64 0, i64 %64
  store i32 %62, i32* %65, align 4
  %66 = load i32, i32* %5, align 4
  %67 = add nsw i32 %66, 1
  store i32 %67, i32* %5, align 4
  br label %68

68:                                               ; preds = %58, %48
  br label %69

69:                                               ; preds = %68
  %70 = load i32, i32* %4, align 4
  %71 = add nsw i32 %70, 1
  store i32 %71, i32* %4, align 4
  br label %44

72:                                               ; preds = %44
  store i32 0, i32* %5, align 4
  %73 = getelementptr inbounds [25 x i32], [25 x i32]* %10, i64 0, i64 0
  %74 = load i32, i32* %73, align 16
  store i32 %74, i32* %7, align 4
  store i32 1, i32* %6, align 4
  br label %75

75:                                               ; preds = %91, %72
  %76 = load i32, i32* %6, align 4
  %77 = icmp slt i32 %76, 25
  br i1 %77, label %78, label %94

78:                                               ; preds = %75
  %79 = load i32, i32* %6, align 4
  %80 = sext i32 %79 to i64
  %81 = getelementptr inbounds [25 x i32], [25 x i32]* %10, i64 0, i64 %80
  %82 = load i32, i32* %81, align 4
  %83 = load i32, i32* %7, align 4
  %84 = icmp sgt i32 %82, %83
  br i1 %84, label %85, label %90

85:                                               ; preds = %78
  %86 = load i32, i32* %6, align 4
  %87 = sext i32 %86 to i64
  %88 = getelementptr inbounds [25 x i32], [25 x i32]* %10, i64 0, i64 %87
  %89 = load i32, i32* %88, align 4
  store i32 %89, i32* %7, align 4
  br label %90

90:                                               ; preds = %85, %78
  br label %91

91:                                               ; preds = %90
  %92 = load i32, i32* %6, align 4
  %93 = add nsw i32 %92, 1
  store i32 %93, i32* %6, align 4
  br label %75

94:                                               ; preds = %75
  store i32 0, i32* %4, align 4
  br label %95

95:                                               ; preds = %102, %94
  %96 = load i32, i32* %4, align 4
  %97 = icmp slt i32 %96, 25
  br i1 %97, label %98, label %105

98:                                               ; preds = %95
  %99 = load i32, i32* %4, align 4
  %100 = sext i32 %99 to i64
  %101 = getelementptr inbounds [25 x i32], [25 x i32]* %10, i64 0, i64 %100
  store i32 0, i32* %101, align 4
  br label %102

102:                                              ; preds = %98
  %103 = load i32, i32* %4, align 4
  %104 = add nsw i32 %103, 1
  store i32 %104, i32* %4, align 4
  br label %95

105:                                              ; preds = %95
  %106 = load i32, i32* %7, align 4
  %107 = add nsw i32 %106, 1
  %108 = load i32, i32* %3, align 4
  %109 = sext i32 %108 to i64
  %110 = getelementptr inbounds [25 x i32], [25 x i32]* %9, i64 0, i64 %109
  store i32 %107, i32* %110, align 4
  br label %111

111:                                              ; preds = %105
  %112 = load i32, i32* %3, align 4
  %113 = add nsw i32 %112, -1
  store i32 %113, i32* %3, align 4
  br label %38

114:                                              ; preds = %38
  store i32 0, i32* %7, align 4
  store i32 0, i32* %3, align 4
  br label %115

115:                                              ; preds = %132, %114
  %116 = load i32, i32* %3, align 4
  %117 = load i32, i32* %2, align 4
  %118 = icmp slt i32 %116, %117
  br i1 %118, label %119, label %135

119:                                              ; preds = %115
  %120 = load i32, i32* %3, align 4
  %121 = sext i32 %120 to i64
  %122 = getelementptr inbounds [25 x i32], [25 x i32]* %9, i64 0, i64 %121
  %123 = load i32, i32* %122, align 4
  %124 = load i32, i32* %7, align 4
  %125 = icmp sgt i32 %123, %124
  br i1 %125, label %126, label %131

126:                                              ; preds = %119
  %127 = load i32, i32* %3, align 4
  %128 = sext i32 %127 to i64
  %129 = getelementptr inbounds [25 x i32], [25 x i32]* %9, i64 0, i64 %128
  %130 = load i32, i32* %129, align 4
  store i32 %130, i32* %7, align 4
  br label %131

131:                                              ; preds = %126, %119
  br label %132

132:                                              ; preds = %131
  %133 = load i32, i32* %3, align 4
  %134 = add nsw i32 %133, 1
  store i32 %134, i32* %3, align 4
  br label %115

135:                                              ; preds = %115
  %136 = load i32, i32* %7, align 4
  %137 = call i32 (i8*, ...) @printf(i8* getelementptr inbounds ([4 x i8], [4 x i8]* @.str.2, i64 0, i64 0), i32 %136)
  br label %138

138:                                              ; preds = %135, %33
  ret i32 0
}

; Function Attrs: argmemonly nounwind willreturn
declare void @llvm.memset.p0i8.i64(i8* nocapture writeonly, i8, i64, i1 immarg) #1

declare dso_local i32 @__isoc99_scanf(i8*, ...) #2

declare dso_local i32 @printf(i8*, ...) #2


!llvm.module.flags = !{!0}
!llvm.ident = !{!1}

!0 = !{i32 1, !"wchar_size", i32 4}
!1 = !{!"clang version 10.0.0-4ubuntu1 "}
